target datalayout = "e-m:e-p270:32:32-p271:32:32-p272:64:64-i64:64-i128:128-f80:128-n8:16:32:64-S128"
target triple = "x86_64-pc-linux-gnu"

%struct.AVFilterContext = type { ptr, ptr, ptr, ptr, ptr, i32, ptr, ptr, i32, ptr, ptr, i32, i32, ptr, ptr, ptr, ptr, i32, ptr, i32, i32 }
%struct.ColorSpaceContext = type { ptr, %struct.ColorSpaceDSPContext, i32, i32, i32, i32, i32, i32, i32, i32, i32, i32, i32, i32, i32, i32, i32, i32, i32, i32, i32, i32, i32, i32, i32, [3 x ptr], i64, i32, [3 x [2 x ptr]], [3 x [2 x ptr]], ptr, ptr, i32, [4 x i8], [3 x [3 x [8 x i16]]], ptr, ptr, i32, ptr, ptr, ptr, ptr, i32, i32, [3 x [3 x [8 x i16]]], [3 x [3 x [8 x i16]]], [3 x [3 x [8 x i16]]], [2 x [8 x i16]], ptr, ptr, ptr, ptr, [3 x [3 x double]], [3 x [3 x double]], i32, i32, i32, i32, i32, [12 x i8] }
%struct.ColorSpaceDSPContext = type { [3 x [3 x ptr]], [3 x [3 x ptr]], [3 x [3 x ptr]], [3 x [3 x [3 x ptr]]], ptr }
%struct.AVFilterFormatsConfig = type { ptr, ptr, ptr, ptr, ptr }

@query_formats.pix_fmts = internal constant [13 x i32] [i32 0, i32 4, i32 5, i32 62, i32 64, i32 68, i32 123, i32 127, i32 131, i32 12, i32 13, i32 14, i32 -1], align 16

; Function Attrs: nounwind uwtable
define internal i32 @query_formats(ptr noundef %0, ptr noundef %1, ptr noundef %2) #1 {
  %4 = alloca i32, align 4
  %5 = alloca ptr, align 8
  %6 = alloca ptr, align 8
  %7 = alloca ptr, align 8
  %8 = alloca i32, align 4
  %9 = alloca ptr, align 8
  %10 = alloca ptr, align 8
  %11 = alloca i32, align 4
  store ptr %0, ptr %5, align 8, !tbaa !4
  store ptr %1, ptr %6, align 8, !tbaa !37
  store ptr %2, ptr %7, align 8, !tbaa !37
  call void @llvm.lifetime.start.p0(i64 4, ptr %8) #9
  call void @llvm.lifetime.start.p0(i64 8, ptr %9) #9
  %12 = load ptr, ptr %5, align 8, !tbaa !4
  %13 = getelementptr inbounds nuw %struct.AVFilterContext, ptr %12, i32 0, i32 9
  %14 = load ptr, ptr %13, align 8, !tbaa !9
  store ptr %14, ptr %9, align 8, !tbaa !22
  call void @llvm.lifetime.start.p0(i64 8, ptr %10) #9
  %15 = load ptr, ptr %9, align 8, !tbaa !22
  %16 = getelementptr inbounds nuw %struct.ColorSpaceContext, ptr %15, i32 0, i32 5
  %17 = load i32, ptr %16, align 4, !tbaa !34
  %18 = call ptr @ff_make_formats_list_singleton(i32 noundef %17)
  %19 = load ptr, ptr %7, align 8, !tbaa !37
  %20 = getelementptr inbounds ptr, ptr %19, i64 0
  %21 = load ptr, ptr %20, align 8, !tbaa !39
  %22 = getelementptr inbounds nuw %struct.AVFilterFormatsConfig, ptr %21, i32 0, i32 3
  %23 = call i32 @ff_formats_ref(ptr noundef %18, ptr noundef %22)
  store i32 %23, ptr %8, align 4, !tbaa !33
  %24 = load i32, ptr %8, align 4, !tbaa !33
  %25 = icmp slt i32 %24, 0
  br i1 %25, label %26, label %28

26:                                               ; preds = %3
  %27 = load i32, ptr %8, align 4, !tbaa !33
  store i32 %27, ptr %4, align 4
  store i32 1, ptr %11, align 4
  br label %92

28:                                               ; preds = %3
  %29 = load ptr, ptr %9, align 8, !tbaa !22
  %30 = getelementptr inbounds nuw %struct.ColorSpaceContext, ptr %29, i32 0, i32 10
  %31 = load i32, ptr %30, align 16, !tbaa !41
  %32 = icmp ne i32 %31, 0
  br i1 %32, label %33, label %48

33:                                               ; preds = %28
  %34 = load ptr, ptr %9, align 8, !tbaa !22
  %35 = getelementptr inbounds nuw %struct.ColorSpaceContext, ptr %34, i32 0, i32 10
  %36 = load i32, ptr %35, align 16, !tbaa !41
  %37 = call ptr @ff_make_formats_list_singleton(i32 noundef %36)
  %38 = load ptr, ptr %7, align 8, !tbaa !37
  %39 = getelementptr inbounds ptr, ptr %38, i64 0
  %40 = load ptr, ptr %39, align 8, !tbaa !39
  %41 = getelementptr inbounds nuw %struct.AVFilterFormatsConfig, ptr %40, i32 0, i32 4
  %42 = call i32 @ff_formats_ref(ptr noundef %37, ptr noundef %41)
  store i32 %42, ptr %8, align 4, !tbaa !33
  %43 = load i32, ptr %8, align 4, !tbaa !33
  %44 = icmp slt i32 %43, 0
  br i1 %44, label %45, label %47

45:                                               ; preds = %33
  %46 = load i32, ptr %8, align 4, !tbaa !33
  store i32 %46, ptr %4, align 4
  store i32 1, ptr %11, align 4
  br label %92

47:                                               ; preds = %33
  br label %48

48:                                               ; preds = %47, %28
  %49 = call ptr @ff_make_format_list(ptr noundef @query_formats.pix_fmts)
  store ptr %49, ptr %10, align 8, !tbaa !42
  %50 = load ptr, ptr %10, align 8, !tbaa !42
  %51 = icmp ne ptr %50, null
  br i1 %51, label %53, label %52

52:                                               ; preds = %48
  store i32 -12, ptr %4, align 4
  store i32 1, ptr %11, align 4
  br label %92

53:                                               ; preds = %48
  %54 = load ptr, ptr %9, align 8, !tbaa !22
  %55 = getelementptr inbounds nuw %struct.ColorSpaceContext, ptr %54, i32 0, i32 21
  %56 = load i32, ptr %55, align 4, !tbaa !44
  %57 = icmp eq i32 %56, -1
  br i1 %57, label %58, label %64

58:                                               ; preds = %53
  %59 = load ptr, ptr %5, align 8, !tbaa !4
  %60 = load ptr, ptr %6, align 8, !tbaa !37
  %61 = load ptr, ptr %7, align 8, !tbaa !37
  %62 = load ptr, ptr %10, align 8, !tbaa !42
  %63 = call i32 @ff_set_common_formats2(ptr noundef %59, ptr noundef %60, ptr noundef %61, ptr noundef %62)
  store i32 %63, ptr %4, align 4
  store i32 1, ptr %11, align 4
  br label %92

64:                                               ; preds = %53
  %65 = load ptr, ptr %10, align 8, !tbaa !42
  %66 = load ptr, ptr %6, align 8, !tbaa !37
  %67 = getelementptr inbounds ptr, ptr %66, i64 0
  %68 = load ptr, ptr %67, align 8, !tbaa !39
  %69 = getelementptr inbounds nuw %struct.AVFilterFormatsConfig, ptr %68, i32 0, i32 0
  %70 = call i32 @ff_formats_ref(ptr noundef %65, ptr noundef %69)
  store i32 %70, ptr %8, align 4, !tbaa !33
  %71 = load i32, ptr %8, align 4, !tbaa !33
  %72 = icmp slt i32 %71, 0
  br i1 %72, label %73, label %75

73:                                               ; preds = %64
  %74 = load i32, ptr %8, align 4, !tbaa !33
  store i32 %74, ptr %4, align 4
  store i32 1, ptr %11, align 4
  br label %92

75:                                               ; preds = %64
  store ptr null, ptr %10, align 8, !tbaa !42
  %76 = load ptr, ptr %9, align 8, !tbaa !22
  %77 = getelementptr inbounds nuw %struct.ColorSpaceContext, ptr %76, i32 0, i32 21
  %78 = load i32, ptr %77, align 4, !tbaa !44
  %79 = sext i32 %78 to i64
  %80 = call i32 @ff_add_format(ptr noundef %10, i64 noundef %79)
  store i32 %80, ptr %8, align 4, !tbaa !33
  %81 = load i32, ptr %8, align 4, !tbaa !33
  %82 = icmp slt i32 %81, 0
  br i1 %82, label %83, label %85

83:                                               ; preds = %75
  %84 = load i32, ptr %8, align 4, !tbaa !33
  store i32 %84, ptr %4, align 4
  store i32 1, ptr %11, align 4
  br label %92

85:                                               ; preds = %75
  %86 = load ptr, ptr %10, align 8, !tbaa !42
  %87 = load ptr, ptr %7, align 8, !tbaa !37
  %88 = getelementptr inbounds ptr, ptr %87, i64 0
  %89 = load ptr, ptr %88, align 8, !tbaa !39
  %90 = getelementptr inbounds nuw %struct.AVFilterFormatsConfig, ptr %89, i32 0, i32 0
  %91 = call i32 @ff_formats_ref(ptr noundef %86, ptr noundef %90)
  store i32 %91, ptr %4, align 4
  store i32 1, ptr %11, align 4
  br label %92

92:                                               ; preds = %85, %83, %73, %58, %52, %45, %26
  call void @llvm.lifetime.end.p0(i64 8, ptr %10) #9
  call void @llvm.lifetime.end.p0(i64 8, ptr %9) #9
  call void @llvm.lifetime.end.p0(i64 4, ptr %8) #9
  %93 = load i32, ptr %4, align 4
  ret i32 %93
}