; Function Attrs: nounwind uwtable
define internal i32 @query_formats(ptr noundef %0, ptr noundef %1, ptr noundef %2) #1 {
  %4 = alloca ptr, align 8
  %5 = getelementptr inbounds nuw i8, ptr %0, i64 72
  %6 = load ptr, ptr %5, align 8, !tbaa !4
  call void @llvm.lifetime.start.p0(i64 8, ptr nonnull %4) #9
  %7 = getelementptr inbounds nuw i8, ptr %6, i64 460
  %8 = load i32, ptr %7, align 4, !tbaa !30
  %9 = tail call ptr @ff_make_formats_list_singleton(i32 noundef %8) #9
  %10 = load ptr, ptr %2, align 8, !tbaa !33
  %11 = getelementptr inbounds nuw i8, ptr %10, i64 24
  %12 = tail call i32 @ff_formats_ref(ptr noundef %9, ptr noundef nonnull %11) #9
  %13 = icmp slt i32 %12, 0
  br i1 %13, label %44, label %14

14:                                               ; preds = %3
  %15 = getelementptr inbounds nuw i8, ptr %6, i64 480
  %16 = load i32, ptr %15, align 16, !tbaa !35
  %.not = icmp eq i32 %16, 0
  br i1 %.not, label %23, label %17

17:                                               ; preds = %14
  %18 = tail call ptr @ff_make_formats_list_singleton(i32 noundef %16) #9
  %19 = load ptr, ptr %2, align 8, !tbaa !33
  %20 = getelementptr inbounds nuw i8, ptr %19, i64 32
  %21 = tail call i32 @ff_formats_ref(ptr noundef %18, ptr noundef nonnull %20) #9
  %22 = icmp slt i32 %21, 0
  br i1 %22, label %44, label %23

23:                                               ; preds = %17, %14
  %24 = tail call ptr @ff_make_format_list(ptr noundef nonnull @query_formats.pix_fmts) #9
  %.not27 = icmp eq ptr %24, null
  br i1 %.not27, label %44, label %25

25:                                               ; preds = %23
  %26 = getelementptr inbounds nuw i8, ptr %6, i64 524
  %27 = load i32, ptr %26, align 4, !tbaa !36
  %28 = icmp eq i32 %27, -1
  br i1 %28, label %29, label %31

29:                                               ; preds = %25
  %30 = tail call i32 @ff_set_common_formats2(ptr noundef nonnull %0, ptr noundef %1, ptr noundef nonnull %2, ptr noundef nonnull %24) #9
  br label %44

31:                                               ; preds = %25
  %32 = load ptr, ptr %1, align 8, !tbaa !33
  %33 = tail call i32 @ff_formats_ref(ptr noundef nonnull %24, ptr noundef %32) #9
  %34 = icmp slt i32 %33, 0
  br i1 %34, label %44, label %35

35:                                               ; preds = %31
  store ptr null, ptr %4, align 8, !tbaa !37
  %36 = load i32, ptr %26, align 4, !tbaa !36
  %37 = sext i32 %36 to i64
  %38 = call i32 @ff_add_format(ptr noundef nonnull %4, i64 noundef %37) #9
  %39 = icmp slt i32 %38, 0
  br i1 %39, label %44, label %40

40:                                               ; preds = %35
  %41 = load ptr, ptr %4, align 8, !tbaa !37
  %42 = load ptr, ptr %2, align 8, !tbaa !33
  %43 = call i32 @ff_formats_ref(ptr noundef %41, ptr noundef %42) #9
  br label %44

44:                                               ; preds = %35, %31, %23, %17, %3, %40, %29
  %.0 = phi i32 [ %30, %29 ], [ %43, %40 ], [ %12, %3 ], [ %21, %17 ], [ -12, %23 ], [ %33, %31 ], [ %38, %35 ]
  call void @llvm.lifetime.end.p0(i64 8, ptr nonnull %4) #9
  ret i32 %.0
}